target datalayout = "e-m:e-p270:32:32-p271:32:32-p272:64:64-i64:64-i128:128-f80:128-n8:16:32:64-S128"
target triple = "x86_64-pc-linux-gnu"

; Function Attrs: nounwind uwtable
define ptr @my_wcsdup(ptr noundef %0) #0 {
  %2 = alloca ptr, align 8
  %3 = alloca ptr, align 8
  %4 = alloca i64, align 8
  %5 = alloca ptr, align 8
  %6 = alloca i32, align 4
  store ptr %0, ptr %3, align 8, !tbaa !44
  call void @llvm.lifetime.start.p0(i64 8, ptr %4) #12
  %7 = load ptr, ptr %3, align 8, !tbaa !44
  %8 = call i64 @wcslen(ptr noundef %7) #13
  store i64 %8, ptr %4, align 8, !tbaa !35
  call void @llvm.lifetime.start.p0(i64 8, ptr %5) #12
  %9 = load i64, ptr %4, align 8, !tbaa !35
  %10 = add i64 %9, 1
  %11 = mul i64 %10, 4
  %12 = call noalias ptr @malloc(i64 noundef %11) #14
  store ptr %12, ptr %5, align 8, !tbaa !44
  %13 = load ptr, ptr %5, align 8, !tbaa !44
  %14 = icmp eq ptr %13, null
  br i1 %14, label %15, label %16

15:                                               ; preds = %1
  store ptr null, ptr %2, align 8
  store i32 1, ptr %6, align 4
  br label %23

16:                                               ; preds = %1
  %17 = load ptr, ptr %5, align 8, !tbaa !44
  %18 = load ptr, ptr %3, align 8, !tbaa !44
  %19 = load i64, ptr %4, align 8, !tbaa !35
  %20 = add i64 %19, 1
  %21 = mul i64 %20, 4
  call void @llvm.memcpy.p0.p0.i64(ptr align 4 %17, ptr align 4 %18, i64 %21, i1 false)
  %22 = load ptr, ptr %5, align 8, !tbaa !44
  store ptr %22, ptr %2, align 8
  store i32 1, ptr %6, align 4
  br label %23

23:                                               ; preds = %16, %15
  call void @llvm.lifetime.end.p0(i64 8, ptr %5) #12
  call void @llvm.lifetime.end.p0(i64 8, ptr %4) #12
  %24 = load ptr, ptr %2, align 8
  ret ptr %24
}