; Function Attrs: mustprogress nofree nounwind willreturn uwtable
define noalias noundef ptr @my_wcsdup(ptr noundef readonly captures(none) %0) local_unnamed_addr #16 {
  %2 = tail call i64 @wcslen(ptr noundef %0) #35
  %3 = shl i64 %2, 2
  %4 = add i64 %3, 4
  %5 = tail call noalias ptr @malloc(i64 noundef %4) #36
  %6 = icmp eq ptr %5, null
  br i1 %6, label %8, label %7

7:                                                ; preds = %1
  tail call void @llvm.memcpy.p0.p0.i64(ptr nonnull align 4 %5, ptr align 4 %0, i64 %4, i1 false)
  br label %8

8:                                                ; preds = %1, %7
  ret ptr %5
}